; Function Attrs: nounwind uwtable
define ptr @l_Lake_RBArray_all___rarg___boxed(ptr noundef %0, ptr noundef %1) #0 {
  %3 = getelementptr inbounds nuw i8, ptr %1, i64 16
  %4 = load ptr, ptr %3, align 8, !tbaa !4
  %5 = getelementptr i8, ptr %4, i64 8
  %.val.i = load i64, ptr %5, align 8, !tbaa !14
  %.mask.i = and i64 %.val.i, 9223372036854775807
  %.not.i4 = icmp eq i64 %.mask.i, 0
  br i1 %.not.i4, label %lean_dec.exit18.i, label %lean_dec.exit.i

lean_dec.exit18.i:                                ; preds = %2
  %6 = ptrtoint ptr %0 to i64
  %7 = and i64 %6, 1
  %.not24.i = icmp eq i64 %7, 0
  br i1 %.not24.i, label %8, label %l_Lake_RBArray_all___rarg.exit

8:                                                ; preds = %lean_dec.exit18.i
  %9 = load i32, ptr %0, align 4, !tbaa !8
  %10 = icmp sgt i32 %9, 1
  br i1 %10, label %11, label %13, !prof !13

11:                                               ; preds = %8
  %12 = add nsw i32 %9, -1
  store i32 %12, ptr %0, align 4, !tbaa !8
  br label %l_Lake_RBArray_all___rarg.exit

13:                                               ; preds = %8
  %.not.i19.i = icmp eq i32 %9, 0
  br i1 %.not.i19.i, label %l_Lake_RBArray_all___rarg.exit, label %14

14:                                               ; preds = %13
  tail call void @lean_dec_ref_cold(ptr noundef nonnull %0) #4
  br label %l_Lake_RBArray_all___rarg.exit

lean_dec.exit.i:                                  ; preds = %2
  %15 = tail call zeroext i8 @l_Array_anyMUnsafe_any___at_Lake_RBArray_all___spec__1___rarg(ptr noundef %0, ptr noundef nonnull %4, i64 noundef 0, i64 noundef %.mask.i)
  %..i = shl nuw nsw i8 %15, 1
  %16 = xor i8 %..i, 3
  %17 = zext nneg i8 %16 to i64
  br label %l_Lake_RBArray_all___rarg.exit

l_Lake_RBArray_all___rarg.exit:                   ; preds = %lean_dec.exit18.i, %11, %13, %14, %lean_dec.exit.i
  %.0.i = phi i64 [ %17, %lean_dec.exit.i ], [ 3, %14 ], [ 3, %13 ], [ 3, %11 ], [ 3, %lean_dec.exit18.i ]
  %18 = ptrtoint ptr %1 to i64
  %19 = and i64 %18, 1
  %.not = icmp eq i64 %19, 0
  br i1 %.not, label %20, label %lean_dec.exit

20:                                               ; preds = %l_Lake_RBArray_all___rarg.exit
  %21 = load i32, ptr %1, align 4, !tbaa !8
  %22 = icmp sgt i32 %21, 1
  br i1 %22, label %23, label %25, !prof !13

23:                                               ; preds = %20
  %24 = add nsw i32 %21, -1
  store i32 %24, ptr %1, align 4, !tbaa !8
  br label %lean_dec.exit

25:                                               ; preds = %20
  %.not.i = icmp eq i32 %21, 0
  br i1 %.not.i, label %lean_dec.exit, label %26

26:                                               ; preds = %25
  tail call void @lean_dec_ref_cold(ptr noundef nonnull %1) #4
  br label %lean_dec.exit

lean_dec.exit:                                    ; preds = %26, %25, %23, %l_Lake_RBArray_all___rarg.exit
  %27 = inttoptr i64 %.0.i to ptr
  ret ptr %27
}